; Function Attrs: mustprogress null_pointer_is_valid sspstrong uwtable
define noundef range(i32 0, 3) i32 @_ZNK18MacroNameValidator8validateER7QStringRi(ptr readnone align 8 captures(none) %0, ptr noundef align 8 dereferenceable(24) %1, ptr readnone align 4 captures(none) %2) unnamed_addr #0 align 2 personality ptr @__gxx_personality_v0 {
  %4 = getelementptr inbounds nuw i8, ptr %1, i64 16
  %5 = load i64, ptr %4, align 8
  %6 = icmp slt i64 %5, 1
  br i1 %6, label %.thread, label %7

7:                                                ; preds = %3
  %8 = load ptr, ptr %1, align 8
  %.not.i.i.i = icmp eq ptr %8, null
  br i1 %.not.i.i.i, label %_ZN7QString5beginEv.exit, label %_ZNK17QArrayDataPointerIDsE11needsDetachEv.exit.i.i

_ZNK17QArrayDataPointerIDsE11needsDetachEv.exit.i.i: ; preds = %7
  %9 = load atomic i32, ptr %8 monotonic, align 4
  %10 = icmp sgt i32 %9, 1
  br i1 %10, label %_ZN7QString5beginEv.exit, label %_ZN7QString5beginEv.exit.thread

_ZN7QString5beginEv.exit.thread:                  ; preds = %_ZNK17QArrayDataPointerIDsE11needsDetachEv.exit.i.i
  %11 = getelementptr inbounds nuw i8, ptr %1, i64 8
  %12 = load ptr, ptr %11, align 8
  br label %_ZNK17QArrayDataPointerIDsE11needsDetachEv.exit.i.i14

_ZN7QString5beginEv.exit:                         ; preds = %7, %_ZNK17QArrayDataPointerIDsE11needsDetachEv.exit.i.i
  tail call void @_ZN7QString11reallocDataExN10QArrayData16AllocationOptionE(ptr noundef align 8 dereferenceable_or_null(24) %1, i64 noundef %5, i32 noundef 1)
  %.pre = load ptr, ptr %1, align 8
  %13 = getelementptr inbounds nuw i8, ptr %1, i64 8
  %14 = load ptr, ptr %13, align 8
  %.not.i.i.i13 = icmp eq ptr %.pre, null
  br i1 %.not.i.i.i13, label %_ZNK17QArrayDataPointerIDsE11needsDetachEv.exit.thread.i.i15, label %_ZNK17QArrayDataPointerIDsE11needsDetachEv.exit.i.i14

_ZNK17QArrayDataPointerIDsE11needsDetachEv.exit.i.i14: ; preds = %_ZN7QString5beginEv.exit.thread, %_ZN7QString5beginEv.exit
  %15 = phi ptr [ %12, %_ZN7QString5beginEv.exit.thread ], [ %14, %_ZN7QString5beginEv.exit ]
  %16 = phi ptr [ %11, %_ZN7QString5beginEv.exit.thread ], [ %13, %_ZN7QString5beginEv.exit ]
  %17 = phi ptr [ %8, %_ZN7QString5beginEv.exit.thread ], [ %.pre, %_ZN7QString5beginEv.exit ]
  %18 = load atomic i32, ptr %17 monotonic, align 4
  %19 = icmp sgt i32 %18, 1
  br i1 %19, label %_ZNK17QArrayDataPointerIDsE11needsDetachEv.exit.thread.i.i15, label %_ZN7QString3endEv.exit

_ZNK17QArrayDataPointerIDsE11needsDetachEv.exit.thread.i.i15: ; preds = %_ZNK17QArrayDataPointerIDsE11needsDetachEv.exit.i.i14, %_ZN7QString5beginEv.exit
  %20 = phi ptr [ %15, %_ZNK17QArrayDataPointerIDsE11needsDetachEv.exit.i.i14 ], [ %14, %_ZN7QString5beginEv.exit ]
  %21 = phi ptr [ %16, %_ZNK17QArrayDataPointerIDsE11needsDetachEv.exit.i.i14 ], [ %13, %_ZN7QString5beginEv.exit ]
  %22 = load i64, ptr %4, align 8
  tail call void @_ZN7QString11reallocDataExN10QArrayData16AllocationOptionE(ptr noundef align 8 dereferenceable_or_null(24) %1, i64 noundef %22, i32 noundef 1)
  %.pre25 = load ptr, ptr %21, align 8
  br label %_ZN7QString3endEv.exit

_ZN7QString3endEv.exit:                           ; preds = %_ZNK17QArrayDataPointerIDsE11needsDetachEv.exit.i.i14, %_ZNK17QArrayDataPointerIDsE11needsDetachEv.exit.thread.i.i15
  %23 = phi ptr [ %15, %_ZNK17QArrayDataPointerIDsE11needsDetachEv.exit.i.i14 ], [ %20, %_ZNK17QArrayDataPointerIDsE11needsDetachEv.exit.thread.i.i15 ]
  %24 = phi ptr [ %15, %_ZNK17QArrayDataPointerIDsE11needsDetachEv.exit.i.i14 ], [ %.pre25, %_ZNK17QArrayDataPointerIDsE11needsDetachEv.exit.thread.i.i15 ]
  %25 = load i64, ptr %4, align 8
  %26 = getelementptr i16, ptr %24, i64 %25
  %.not20 = icmp eq ptr %23, %26
  br i1 %.not20, label %.thread, label %.lr.ph

.lr.ph:                                           ; preds = %_ZN7QString3endEv.exit, %.critedge
  %.01221 = phi ptr [ %36, %.critedge ], [ %23, %_ZN7QString3endEv.exit ]
  %27 = load i16, ptr %.01221, align 2
  %28 = zext i16 %27 to i32
  %29 = add i16 %27, -65
  %or.cond.i.i = icmp ult i16 %29, 58
  %30 = add nsw i32 %28, -97
  %or.cond3.i.i = icmp ult i32 %30, -6
  %or.cond13.i.i = select i1 %or.cond.i.i, i1 %or.cond3.i.i, i1 false
  %31 = add i16 %27, -48
  %or.cond5.i.i = icmp ult i16 %31, 10
  %or.cond14.i.i = or i1 %or.cond5.i.i, %or.cond13.i.i
  br i1 %or.cond14.i.i, label %.critedge, label %32

32:                                               ; preds = %.lr.ph
  %33 = icmp ugt i16 %27, 127
  br i1 %33, label %_ZNK5QChar16isLetterOrNumberEv.exit, label %35

_ZNK5QChar16isLetterOrNumberEv.exit:              ; preds = %32
  %34 = tail call noundef zeroext i1 @_ZN5QChar23isLetterOrNumber_helperEDi(i32 noundef zeroext %28) #24
  br i1 %34, label %.critedge, label %.thread

35:                                               ; preds = %32
  %.not19 = icmp eq i16 %27, 95
  br i1 %.not19, label %.critedge, label %.thread

.critedge:                                        ; preds = %.lr.ph, %35, %_ZNK5QChar16isLetterOrNumberEv.exit
  %36 = getelementptr i8, ptr %.01221, i64 2
  %.not = icmp eq ptr %36, %26
  br i1 %.not, label %.thread, label %.lr.ph

.thread:                                          ; preds = %_ZNK5QChar16isLetterOrNumberEv.exit, %35, %.critedge, %_ZN7QString3endEv.exit, %3
  %.0 = phi i32 [ 1, %3 ], [ 2, %_ZN7QString3endEv.exit ], [ 0, %_ZNK5QChar16isLetterOrNumberEv.exit ], [ 0, %35 ], [ 2, %.critedge ]
  ret i32 %.0
}